target datalayout = "e-m:e-p270:32:32-p271:32:32-p272:64:64-i64:64-i128:128-f80:128-n8:16:32:64-S128"
target triple = "x86_64-pc-linux-gnu"

%struct.AVCodecContext = type { ptr, i32, i32, ptr, i32, i32, ptr, ptr, ptr, i64, i32, i32, ptr, i32, %struct.AVRational, %struct.AVRational, %struct.AVRational, i32, i32, i32, i32, i32, %struct.AVRational, i32, i32, i32, i32, i32, i32, i32, i32, i32, i32, i32, ptr, ptr, i32, float, float, float, float, float, float, float, float, float, i32, i32, i32, i32, i32, i32, i32, i32, i32, i32, i32, i32, ptr, ptr, ptr, i32, i32, i32, i32, i32, i32, i32, i32, i32, i32, %struct.AVChannelLayout, i32, i32, i32, i32, i32, i32, i32, i32, ptr, i32, i32, i32, float, float, i32, i32, i32, i32, i32, ptr, i64, i64, float, float, i32, i32, ptr, ptr, i32, i32, i32, i32, i32, ptr, ptr, ptr, ptr, i32, i32, [8 x i64], i32, i32, i32, i32, i32, i32, i32, ptr, ptr, i32, i32, i32, i32, i32, i32, i32, i32, i32, i32, ptr, ptr, i32, i32, ptr, ptr, ptr, ptr, i32, i32, i64, i32, i32, i64, ptr, i64, ptr, i32, ptr, i32 }
%struct.AVRational = type { i32, i32 }
%struct.AVChannelLayout = type { i32, i32, %union.anon.0, ptr }
%union.anon.0 = type { i64 }
%struct.WMAProDecodeCtx = type { ptr, ptr, [32832 x i8], %struct.PutBitContext, [8 x ptr], [8 x ptr], [8192 x float], [8 x ptr], i32, i8, i8, i8, i16, i16, i16, i16, i8, i8, i8, i8, i16, [8 x i8], [8 x [29 x i16]], [8 x [8 x [29 x i8]]], [8 x i16], %struct.GetBitContext, i32, i8, i8, i32, i32, i32, i8, i8, i8, i32, %struct.GetBitContext, i32, i8, i8, i8, i8, i16, i8, i8, [8 x i8], i8, i8, ptr, i8, i8, i8, [8 x %struct.WMAProChannelGrp], [8 x i8], [8 x %struct.WMAProChannelCtx] }
%struct.PutBitContext = type { i32, i32, ptr, ptr, ptr }
%struct.GetBitContext = type { ptr, ptr, i32, i32, i32 }
%struct.WMAProChannelGrp = type { i8, i8, [29 x i8], [64 x float], [8 x ptr] }
%struct.WMAProChannelCtx = type { i16, i8, i8, [32 x i16], [32 x i16], i8, i16, i8, i32, i8, i8, i32, [2 x [29 x i32]], i8, ptr, i8, ptr, i16, [14 x i8], [12288 x float] }
%struct.XMADecodeCtx = type { [8 x %struct.WMAProDecodeCtx], [8 x ptr], i32, i32, [2 x [8 x ptr]], [8 x i32], i32, i32, i32, [12 x i8] }

; Function Attrs: nounwind uwtable
define internal void @flush(ptr noundef %0) #1 {
  %2 = alloca ptr, align 8
  %3 = alloca i32, align 4
  store ptr %0, ptr %2, align 8, !tbaa !29
  call void @llvm.lifetime.start.p0(i64 4, ptr %3) #11
  store i32 0, ptr %3, align 4, !tbaa !47
  br label %4

4:                                                ; preds = %24, %1
  %5 = load i32, ptr %3, align 4, !tbaa !47
  %6 = load ptr, ptr %2, align 8, !tbaa !29
  %7 = getelementptr inbounds nuw %struct.WMAProDecodeCtx, ptr %6, i32 0, i32 43
  %8 = load i8, ptr %7, align 2, !tbaa !59
  %9 = sext i8 %8 to i32
  %10 = icmp slt i32 %5, %9
  br i1 %10, label %11, label %27

11:                                               ; preds = %4
  %12 = load ptr, ptr %2, align 8, !tbaa !29
  %13 = getelementptr inbounds nuw %struct.WMAProDecodeCtx, ptr %12, i32 0, i32 54
  %14 = load i32, ptr %3, align 4, !tbaa !47
  %15 = sext i32 %14 to i64
  %16 = getelementptr inbounds [8 x %struct.WMAProChannelCtx], ptr %13, i64 0, i64 %15
  %17 = getelementptr inbounds nuw %struct.WMAProChannelCtx, ptr %16, i32 0, i32 19
  %18 = getelementptr inbounds [12288 x float], ptr %17, i64 0, i64 0
  %19 = load ptr, ptr %2, align 8, !tbaa !29
  %20 = getelementptr inbounds nuw %struct.WMAProDecodeCtx, ptr %19, i32 0, i32 12
  %21 = load i16, ptr %20, align 8, !tbaa !36
  %22 = zext i16 %21 to i64
  %23 = mul i64 %22, 4
  call void @llvm.memset.p0.i64(ptr align 16 %18, i8 0, i64 %23, i1 false)
  br label %24

24:                                               ; preds = %11
  %25 = load i32, ptr %3, align 4, !tbaa !47
  %26 = add nsw i32 %25, 1
  store i32 %26, ptr %3, align 4, !tbaa !47
  br label %4, !llvm.loop !251

27:                                               ; preds = %4
  %28 = load ptr, ptr %2, align 8, !tbaa !29
  %29 = getelementptr inbounds nuw %struct.WMAProDecodeCtx, ptr %28, i32 0, i32 32
  store i8 1, ptr %29, align 4, !tbaa !48
  %30 = load ptr, ptr %2, align 8, !tbaa !29
  %31 = getelementptr inbounds nuw %struct.WMAProDecodeCtx, ptr %30, i32 0, i32 41
  store i8 0, ptr %31, align 1, !tbaa !85
  %32 = load ptr, ptr %2, align 8, !tbaa !29
  %33 = getelementptr inbounds nuw %struct.WMAProDecodeCtx, ptr %32, i32 0, i32 34
  store i8 0, ptr %33, align 2, !tbaa !74
  %34 = load ptr, ptr %2, align 8, !tbaa !29
  %35 = getelementptr inbounds nuw %struct.WMAProDecodeCtx, ptr %34, i32 0, i32 39
  store i8 1, ptr %35, align 1, !tbaa !100
  call void @llvm.lifetime.end.p0(i64 4, ptr %3) #11
  ret void
}

; Function Attrs: nounwind uwtable
define internal void @xma_flush(ptr noundef %0) #1 {
  %2 = alloca ptr, align 8
  %3 = alloca ptr, align 8
  %4 = alloca i32, align 4
  store ptr %0, ptr %2, align 8, !tbaa !4
  call void @llvm.lifetime.start.p0(i64 8, ptr %3) #11
  %5 = load ptr, ptr %2, align 8, !tbaa !4
  %6 = getelementptr inbounds nuw %struct.AVCodecContext, ptr %5, i32 0, i32 6
  %7 = load ptr, ptr %6, align 8, !tbaa !9
  store ptr %7, ptr %3, align 8, !tbaa !49
  call void @llvm.lifetime.start.p0(i64 4, ptr %4) #11
  store i32 0, ptr %4, align 4, !tbaa !47
  br label %8

8:                                                ; preds = %26, %1
  %9 = load i32, ptr %4, align 4, !tbaa !47
  %10 = icmp slt i32 %9, 8
  br i1 %10, label %11, label %29

11:                                               ; preds = %8
  %12 = load ptr, ptr %3, align 8, !tbaa !49
  %13 = getelementptr inbounds nuw %struct.XMADecodeCtx, ptr %12, i32 0, i32 4
  %14 = getelementptr inbounds [2 x [8 x ptr]], ptr %13, i64 0, i64 0
  %15 = load i32, ptr %4, align 4, !tbaa !47
  %16 = sext i32 %15 to i64
  %17 = getelementptr inbounds [8 x ptr], ptr %14, i64 0, i64 %16
  %18 = load ptr, ptr %17, align 8, !tbaa !63
  call void @av_audio_fifo_reset(ptr noundef %18)
  %19 = load ptr, ptr %3, align 8, !tbaa !49
  %20 = getelementptr inbounds nuw %struct.XMADecodeCtx, ptr %19, i32 0, i32 4
  %21 = getelementptr inbounds [2 x [8 x ptr]], ptr %20, i64 0, i64 1
  %22 = load i32, ptr %4, align 4, !tbaa !47
  %23 = sext i32 %22 to i64
  %24 = getelementptr inbounds [8 x ptr], ptr %21, i64 0, i64 %23
  %25 = load ptr, ptr %24, align 8, !tbaa !63
  call void @av_audio_fifo_reset(ptr noundef %25)
  br label %26

26:                                               ; preds = %11
  %27 = load i32, ptr %4, align 4, !tbaa !47
  %28 = add nsw i32 %27, 1
  store i32 %28, ptr %4, align 4, !tbaa !47
  br label %8, !llvm.loop !92

29:                                               ; preds = %8
  store i32 0, ptr %4, align 4, !tbaa !47
  br label %30

30:                                               ; preds = %42, %29
  %31 = load i32, ptr %4, align 4, !tbaa !47
  %32 = load ptr, ptr %3, align 8, !tbaa !49
  %33 = getelementptr inbounds nuw %struct.XMADecodeCtx, ptr %32, i32 0, i32 3
  %34 = load i32, ptr %33, align 4, !tbaa !57
  %35 = icmp slt i32 %31, %34
  br i1 %35, label %36, label %45

36:                                               ; preds = %30
  %37 = load ptr, ptr %3, align 8, !tbaa !49
  %38 = getelementptr inbounds nuw %struct.XMADecodeCtx, ptr %37, i32 0, i32 0
  %39 = load i32, ptr %4, align 4, !tbaa !47
  %40 = sext i32 %39 to i64
  %41 = getelementptr inbounds [8 x %struct.WMAProDecodeCtx], ptr %38, i64 0, i64 %40
  call void @flush(ptr noundef %41)
  br label %42

42:                                               ; preds = %36
  %43 = load i32, ptr %4, align 4, !tbaa !47
  %44 = add nsw i32 %43, 1
  store i32 %44, ptr %4, align 4, !tbaa !47
  br label %30, !llvm.loop !93

45:                                               ; preds = %30
  %46 = load ptr, ptr %3, align 8, !tbaa !49
  %47 = getelementptr inbounds nuw %struct.XMADecodeCtx, ptr %46, i32 0, i32 2
  store i32 0, ptr %47, align 16, !tbaa !66
  %48 = load ptr, ptr %3, align 8, !tbaa !49
  %49 = getelementptr inbounds nuw %struct.XMADecodeCtx, ptr %48, i32 0, i32 8
  store i32 0, ptr %49, align 16, !tbaa !88
  call void @llvm.lifetime.end.p0(i64 4, ptr %4) #11
  call void @llvm.lifetime.end.p0(i64 8, ptr %3) #11
  ret void
}