; Function Attrs: nounwind uwtable
define internal void @xma_flush(ptr noundef readonly captures(none) %0) #1 {
  %2 = getelementptr inbounds nuw i8, ptr %0, i64 32
  %3 = load ptr, ptr %2, align 8, !tbaa !4
  %4 = getelementptr inbounds nuw i8, ptr %3, i64 3742792
  %5 = getelementptr inbounds nuw i8, ptr %3, i64 3742856
  br label %9

.preheader:                                       ; preds = %9
  %6 = getelementptr inbounds nuw i8, ptr %3, i64 3742788
  %7 = load i32, ptr %6, align 4, !tbaa !52
  %8 = icmp sgt i32 %7, 0
  br i1 %8, label %.lr.ph, label %._crit_edge

9:                                                ; preds = %1, %9
  %indvars.iv = phi i64 [ 0, %1 ], [ %indvars.iv.next, %9 ]
  %10 = getelementptr inbounds nuw [8 x ptr], ptr %4, i64 0, i64 %indvars.iv
  %11 = load ptr, ptr %10, align 8, !tbaa !60
  tail call void @av_audio_fifo_reset(ptr noundef %11) #11
  %12 = getelementptr inbounds nuw [8 x ptr], ptr %5, i64 0, i64 %indvars.iv
  %13 = load ptr, ptr %12, align 8, !tbaa !60
  tail call void @av_audio_fifo_reset(ptr noundef %13) #11
  %indvars.iv.next = add nuw nsw i64 %indvars.iv, 1
  %exitcond.not = icmp eq i64 %indvars.iv.next, 8
  br i1 %exitcond.not, label %.preheader, label %9, !llvm.loop !87

.lr.ph:                                           ; preds = %.preheader, %flush.exit
  %14 = phi i32 [ %29, %flush.exit ], [ %7, %.preheader ]
  %indvars.iv16 = phi i64 [ %indvars.iv.next17, %flush.exit ], [ 0, %.preheader ]
  %15 = getelementptr inbounds nuw [8 x %struct.WMAProDecodeCtx], ptr %3, i64 0, i64 %indvars.iv16
  %16 = getelementptr inbounds nuw i8, ptr %15, i64 68314
  %17 = load i8, ptr %16, align 2, !tbaa !40
  %18 = icmp sgt i8 %17, 0
  br i1 %18, label %.lr.ph.i, label %flush.exit

.lr.ph.i:                                         ; preds = %.lr.ph
  %19 = getelementptr i8, ptr %15, i64 71600
  %20 = getelementptr inbounds nuw i8, ptr %15, i64 65848
  br label %21

21:                                               ; preds = %21, %.lr.ph.i
  %indvars.iv.i = phi i64 [ 0, %.lr.ph.i ], [ %indvars.iv.next.i, %21 ]
  %.idx.i = mul nuw nsw i64 %indvars.iv.i, 49584
  %22 = getelementptr i8, ptr %19, i64 %.idx.i
  %23 = load i16, ptr %20, align 8, !tbaa !27
  %24 = zext i16 %23 to i64
  %25 = shl nuw nsw i64 %24, 2
  tail call void @llvm.memset.p0.i64(ptr align 16 %22, i8 0, i64 %25, i1 false)
  %indvars.iv.next.i = add nuw nsw i64 %indvars.iv.i, 1
  %26 = load i8, ptr %16, align 2, !tbaa !40
  %27 = sext i8 %26 to i64
  %28 = icmp slt i64 %indvars.iv.next.i, %27
  br i1 %28, label %21, label %flush.exit.loopexit, !llvm.loop !41

flush.exit.loopexit:                              ; preds = %21
  %.pre = load i32, ptr %6, align 4, !tbaa !52
  br label %flush.exit

flush.exit:                                       ; preds = %flush.exit.loopexit, %.lr.ph
  %29 = phi i32 [ %.pre, %flush.exit.loopexit ], [ %14, %.lr.ph ]
  %30 = getelementptr inbounds nuw i8, ptr %15, i64 68260
  store i8 1, ptr %30, align 4, !tbaa !39
  %31 = getelementptr inbounds nuw i8, ptr %15, i64 68311
  store i8 0, ptr %31, align 1, !tbaa !43
  %32 = getelementptr inbounds nuw i8, ptr %15, i64 68262
  store i8 0, ptr %32, align 2, !tbaa !44
  %33 = getelementptr inbounds nuw i8, ptr %15, i64 68309
  store i8 1, ptr %33, align 1, !tbaa !45
  %indvars.iv.next17 = add nuw nsw i64 %indvars.iv16, 1
  %34 = sext i32 %29 to i64
  %35 = icmp slt i64 %indvars.iv.next17, %34
  br i1 %35, label %.lr.ph, label %._crit_edge, !llvm.loop !88

._crit_edge:                                      ; preds = %flush.exit, %.preheader
  %36 = getelementptr inbounds nuw i8, ptr %3, i64 3742784
  store i32 0, ptr %36, align 16, !tbaa !62
  %37 = getelementptr inbounds nuw i8, ptr %3, i64 3742960
  store i32 0, ptr %37, align 16, !tbaa !83
  ret void
}